target datalayout = "e-m:e-p270:32:32-p271:32:32-p272:64:64-i64:64-i128:128-f80:128-n8:16:32:64-S128"
target triple = "x86_64-pc-linux-gnu"

%class.LogTagSet = type { ptr, i64, [5 x i32], [4 x i8], %class.LogOutputList, %class.LogDecorators, ptr }
%class.LogOutputList = type <{ [6 x ptr], i32, [4 x i8] }>
%class.LogDecorators = type { i32 }
%class.StackOverflow = type { i32, ptr, ptr, ptr, ptr, ptr, ptr }

@_ZN13StackOverflow20_stack_red_zone_sizeE = hidden global i64 0, align 8
@_ZN13StackOverflow23_stack_yellow_zone_sizeE = hidden global i64 0, align 8
@_ZN13StackOverflow25_stack_reserved_zone_sizeE = hidden global i64 0, align 8
@.str.9 = private unnamed_addr constant [68 x i8] c"Attempt to deallocate stack guard pages failed (0x%016lx-0x%016lx).\00", align 1
@.str.10 = private unnamed_addr constant [67 x i8] c"Attempt to unprotect stack guard pages failed (0x%016lx-0x%016lx).\00", align 1
@.str.11 = private unnamed_addr constant [57 x i8] c"Thread %lu stack guard pages removed: 0x%016lx-0x%016lx.\00", align 1
@_ZN16LogTagSetMappingILN6LogTag4typeE105ELS1_159ELS1_0ELS1_0ELS1_0ELS1_0EE7_tagsetE = linkonce_odr hidden global %class.LogTagSet zeroinitializer, comdat, align 8

; Function Attrs: mustprogress nounwind uwtable
define linkonce_odr hidden noundef zeroext i1 @_ZNK13LogOutputList8is_levelEN8LogLevel4typeE(ptr noundef nonnull align 8 dereferenceable(52) %0, i32 noundef %1) #1 comdat align 2 {
  %3 = alloca ptr, align 8
  %4 = alloca i32, align 4
  store ptr %0, ptr %3, align 8
  store i32 %1, ptr %4, align 4
  %5 = load ptr, ptr %3, align 8
  %6 = getelementptr inbounds %class.LogOutputList, ptr %5, i32 0, i32 0
  %7 = load i32, ptr %4, align 4
  %8 = zext i32 %7 to i64
  %9 = getelementptr inbounds [6 x ptr], ptr %6, i64 0, i64 %8
  %10 = load volatile ptr, ptr %9, align 8
  %11 = icmp ne ptr %10, null
  ret i1 %11
}

; Function Attrs: mustprogress nounwind uwtable
define linkonce_odr hidden noundef zeroext i1 @_ZNK9LogTagSet8is_levelEN8LogLevel4typeE(ptr noundef nonnull align 8 dereferenceable(112) %0, i32 noundef %1) #1 comdat align 2 {
  %3 = alloca ptr, align 8
  %4 = alloca i32, align 4
  store ptr %0, ptr %3, align 8
  store i32 %1, ptr %4, align 4
  %5 = load ptr, ptr %3, align 8
  %6 = getelementptr inbounds %class.LogTagSet, ptr %5, i32 0, i32 4
  %7 = load i32, ptr %4, align 4
  %8 = call noundef zeroext i1 @_ZNK13LogOutputList8is_levelEN8LogLevel4typeE(ptr noundef nonnull align 8 dereferenceable(52) %6, i32 noundef %7)
  ret i1 %8
}

; Function Attrs: mustprogress nounwind uwtable
define linkonce_odr hidden noundef nonnull align 8 dereferenceable(112) ptr @_ZN16LogTagSetMappingILN6LogTag4typeE105ELS1_159ELS1_0ELS1_0ELS1_0ELS1_0EE6tagsetEv() #1 comdat align 2 {
  ret ptr @_ZN16LogTagSetMappingILN6LogTag4typeE105ELS1_159ELS1_0ELS1_0ELS1_0ELS1_0EE7_tagsetE
}

; Function Attrs: mustprogress nounwind uwtable
define linkonce_odr hidden noundef i64 @_ZN13StackOverflow31stack_yellow_reserved_zone_sizeEv() #1 comdat align 2 {
  %1 = load i64, ptr @_ZN13StackOverflow23_stack_yellow_zone_sizeE, align 8
  %2 = load i64, ptr @_ZN13StackOverflow25_stack_reserved_zone_sizeE, align 8
  %3 = add i64 %1, %2
  ret i64 %3
}

; Function Attrs: mustprogress nounwind uwtable
define linkonce_odr hidden noundef i64 @_ZN13StackOverflow19stack_red_zone_sizeEv() #1 comdat align 2 {
  %1 = load i64, ptr @_ZN13StackOverflow20_stack_red_zone_sizeE, align 8
  ret i64 %1
}

; Function Attrs: mustprogress nounwind uwtable
define linkonce_odr hidden noundef i64 @_Z3p2iPVKv(ptr noundef %0) #1 comdat {
  %2 = alloca ptr, align 8
  store ptr %0, ptr %2, align 8
  %3 = load ptr, ptr %2, align 8
  %4 = ptrtoint ptr %3 to i64
  ret i64 %4
}

; Function Attrs: mustprogress nounwind uwtable
define linkonce_odr hidden noundef zeroext i1 @_ZN7LogImplILN6LogTag4typeE105ELS1_159ELS1_0ELS1_0ELS1_0ELS1_0EE8is_levelEN8LogLevel4typeE(i32 noundef %0) #1 comdat align 2 {
  %2 = alloca i32, align 4
  store i32 %0, ptr %2, align 4
  %3 = call noundef nonnull align 8 dereferenceable(112) ptr @_ZN16LogTagSetMappingILN6LogTag4typeE105ELS1_159ELS1_0ELS1_0ELS1_0ELS1_0EE6tagsetEv()
  %4 = load i32, ptr %2, align 4
  %5 = call noundef zeroext i1 @_ZNK9LogTagSet8is_levelEN8LogLevel4typeE(ptr noundef nonnull align 8 dereferenceable(112) %3, i32 noundef %4)
  ret i1 %5
}

; Function Attrs: mustprogress nounwind uwtable
define linkonce_odr hidden noundef zeroext i1 @_ZN2os29must_commit_stack_guard_pagesEv() #1 comdat align 2 {
  ret i1 true
}

; Function Attrs: mustprogress nounwind uwtable
define linkonce_odr hidden noundef i64 @_ZN13StackOverflow21stack_guard_zone_sizeEv() #1 comdat align 2 {
  %1 = call noundef i64 @_ZN13StackOverflow19stack_red_zone_sizeEv()
  %2 = call noundef i64 @_ZN13StackOverflow31stack_yellow_reserved_zone_sizeEv()
  %3 = add i64 %1, %2
  ret i64 %3
}

; Function Attrs: mustprogress nounwind uwtable
define linkonce_odr hidden noundef ptr @_ZNK13StackOverflow9stack_endEv(ptr noundef nonnull align 8 dereferenceable(56) %0) #1 comdat align 2 {
  %2 = alloca ptr, align 8
  store ptr %0, ptr %2, align 8
  %3 = load ptr, ptr %2, align 8
  %4 = getelementptr inbounds %class.StackOverflow, ptr %3, i32 0, i32 6
  %5 = load ptr, ptr %4, align 8
  ret ptr %5
}

; Function Attrs: mustprogress nounwind uwtable
define hidden void @_ZN13StackOverflow24remove_stack_guard_pagesEv(ptr noundef nonnull align 8 dereferenceable(56) %0) #1 align 2 {
  %2 = alloca ptr, align 8
  %3 = alloca ptr, align 8
  %4 = alloca i64, align 8
  store ptr %0, ptr %2, align 8
  %5 = load ptr, ptr %2, align 8
  %6 = getelementptr inbounds %class.StackOverflow, ptr %5, i32 0, i32 0
  %7 = load i32, ptr %6, align 8
  %8 = icmp eq i32 %7, 0
  br i1 %8, label %9, label %10

9:                                                ; preds = %1
  br label %66

10:                                               ; preds = %1
  %11 = call noundef ptr @_ZNK13StackOverflow9stack_endEv(ptr noundef nonnull align 8 dereferenceable(56) %5)
  store ptr %11, ptr %3, align 8
  %12 = call noundef i64 @_ZN13StackOverflow21stack_guard_zone_sizeEv()
  store i64 %12, ptr %4, align 8
  %13 = call noundef zeroext i1 @_ZN2os29must_commit_stack_guard_pagesEv()
  br i1 %13, label %14, label %32

14:                                               ; preds = %10
  %15 = load ptr, ptr %3, align 8
  %16 = load i64, ptr %4, align 8
  %17 = call noundef zeroext i1 @_ZN2os24remove_stack_guard_pagesEPcm(ptr noundef %15, i64 noundef %16)
  br i1 %17, label %18, label %20

18:                                               ; preds = %14
  %19 = getelementptr inbounds %class.StackOverflow, ptr %5, i32 0, i32 0
  store i32 0, ptr %19, align 8
  br label %31

20:                                               ; preds = %14
  %21 = call noundef zeroext i1 @_ZN7LogImplILN6LogTag4typeE105ELS1_159ELS1_0ELS1_0ELS1_0ELS1_0EE8is_levelEN8LogLevel4typeE(i32 noundef 4)
  br i1 %21, label %23, label %22

22:                                               ; preds = %20
  br label %30

23:                                               ; preds = %20
  %24 = load ptr, ptr %3, align 8
  %25 = call noundef i64 @_Z3p2iPVKv(ptr noundef %24)
  %26 = load ptr, ptr %3, align 8
  %27 = load i64, ptr %4, align 8
  %28 = getelementptr inbounds i8, ptr %26, i64 %27
  %29 = call noundef i64 @_Z3p2iPVKv(ptr noundef %28)
  call void (ptr, ...) @_ZN7LogImplILN6LogTag4typeE105ELS1_159ELS1_0ELS1_0ELS1_0ELS1_0EE5writeILN8LogLevel4typeE4EEEvPKcz(ptr noundef @.str.9, i64 noundef %25, i64 noundef %29)
  br label %30

30:                                               ; preds = %23, %22
  br label %66

31:                                               ; preds = %18
  br label %55

32:                                               ; preds = %10
  %33 = getelementptr inbounds %class.StackOverflow, ptr %5, i32 0, i32 0
  %34 = load i32, ptr %33, align 8
  %35 = icmp eq i32 %34, 0
  br i1 %35, label %36, label %37

36:                                               ; preds = %32
  br label %66

37:                                               ; preds = %32
  %38 = load ptr, ptr %3, align 8
  %39 = load i64, ptr %4, align 8
  %40 = call noundef zeroext i1 @_ZN2os14unguard_memoryEPcm(ptr noundef %38, i64 noundef %39)
  br i1 %40, label %41, label %43

41:                                               ; preds = %37
  %42 = getelementptr inbounds %class.StackOverflow, ptr %5, i32 0, i32 0
  store i32 0, ptr %42, align 8
  br label %54

43:                                               ; preds = %37
  %44 = call noundef zeroext i1 @_ZN7LogImplILN6LogTag4typeE105ELS1_159ELS1_0ELS1_0ELS1_0ELS1_0EE8is_levelEN8LogLevel4typeE(i32 noundef 4)
  br i1 %44, label %46, label %45

45:                                               ; preds = %43
  br label %53

46:                                               ; preds = %43
  %47 = load ptr, ptr %3, align 8
  %48 = call noundef i64 @_Z3p2iPVKv(ptr noundef %47)
  %49 = load ptr, ptr %3, align 8
  %50 = load i64, ptr %4, align 8
  %51 = getelementptr inbounds i8, ptr %49, i64 %50
  %52 = call noundef i64 @_Z3p2iPVKv(ptr noundef %51)
  call void (ptr, ...) @_ZN7LogImplILN6LogTag4typeE105ELS1_159ELS1_0ELS1_0ELS1_0ELS1_0EE5writeILN8LogLevel4typeE4EEEvPKcz(ptr noundef @.str.10, i64 noundef %48, i64 noundef %52)
  br label %53

53:                                               ; preds = %46, %45
  br label %66

54:                                               ; preds = %41
  br label %55

55:                                               ; preds = %54, %31
  %56 = call noundef zeroext i1 @_ZN7LogImplILN6LogTag4typeE105ELS1_159ELS1_0ELS1_0ELS1_0ELS1_0EE8is_levelEN8LogLevel4typeE(i32 noundef 2)
  br i1 %56, label %58, label %57

57:                                               ; preds = %55
  br label %66

58:                                               ; preds = %55
  %59 = call noundef i64 @_ZN2os17current_thread_idEv()
  %60 = load ptr, ptr %3, align 8
  %61 = call noundef i64 @_Z3p2iPVKv(ptr noundef %60)
  %62 = load ptr, ptr %3, align 8
  %63 = load i64, ptr %4, align 8
  %64 = getelementptr inbounds i8, ptr %62, i64 %63
  %65 = call noundef i64 @_Z3p2iPVKv(ptr noundef %64)
  call void (ptr, ...) @_ZN7LogImplILN6LogTag4typeE105ELS1_159ELS1_0ELS1_0ELS1_0ELS1_0EE5writeILN8LogLevel4typeE2EEEvPKcz(ptr noundef @.str.11, i64 noundef %59, i64 noundef %61, i64 noundef %65)
  br label %66

66:                                               ; preds = %58, %57, %53, %36, %30, %9
  ret void
}