; Function Attrs: mustprogress nounwind uwtable
define hidden void @_ZN13StackOverflow24remove_stack_guard_pagesEv(ptr nocapture noundef nonnull align 8 dereferenceable(56) %0) local_unnamed_addr #2 align 2 {
  %2 = load i32, ptr %0, align 8
  %3 = icmp eq i32 %2, 0
  br i1 %3, label %26, label %4

4:                                                ; preds = %1
  %5 = getelementptr inbounds i8, ptr %0, i64 48
  %6 = load ptr, ptr %5, align 8
  %7 = load i64, ptr @_ZN13StackOverflow20_stack_red_zone_sizeE, align 8
  %8 = load i64, ptr @_ZN13StackOverflow23_stack_yellow_zone_sizeE, align 8
  %9 = load i64, ptr @_ZN13StackOverflow25_stack_reserved_zone_sizeE, align 8
  %10 = add i64 %8, %7
  %11 = add i64 %10, %9
  %12 = tail call noundef zeroext i1 @_ZN2os24remove_stack_guard_pagesEPcm(ptr noundef %6, i64 noundef %11) #7
  br i1 %12, label %19, label %13

13:                                               ; preds = %4
  %14 = load volatile ptr, ptr getelementptr inbounds (i8, ptr @_ZN16LogTagSetMappingILN6LogTag4typeE105ELS1_159ELS1_0ELS1_0ELS1_0ELS1_0EE7_tagsetE, i64 72), align 8
  %.not = icmp eq ptr %14, null
  br i1 %.not, label %26, label %15

15:                                               ; preds = %13
  %16 = ptrtoint ptr %6 to i64
  %17 = getelementptr inbounds i8, ptr %6, i64 %11
  %18 = ptrtoint ptr %17 to i64
  tail call void (ptr, ...) @_ZN7LogImplILN6LogTag4typeE105ELS1_159ELS1_0ELS1_0ELS1_0ELS1_0EE5writeILN8LogLevel4typeE4EEEvPKcz(ptr noundef nonnull @.str.9, i64 noundef %16, i64 noundef %18)
  br label %26

19:                                               ; preds = %4
  store i32 0, ptr %0, align 8
  %20 = load volatile ptr, ptr getelementptr inbounds (i8, ptr @_ZN16LogTagSetMappingILN6LogTag4typeE105ELS1_159ELS1_0ELS1_0ELS1_0ELS1_0EE7_tagsetE, i64 56), align 8
  %.not13 = icmp eq ptr %20, null
  br i1 %.not13, label %26, label %21

21:                                               ; preds = %19
  %22 = tail call noundef i64 @_ZN2os17current_thread_idEv() #7
  %23 = ptrtoint ptr %6 to i64
  %24 = getelementptr inbounds i8, ptr %6, i64 %11
  %25 = ptrtoint ptr %24 to i64
  tail call void (ptr, ...) @_ZN7LogImplILN6LogTag4typeE105ELS1_159ELS1_0ELS1_0ELS1_0ELS1_0EE5writeILN8LogLevel4typeE2EEEvPKcz(ptr noundef nonnull @.str.11, i64 noundef %22, i64 noundef %23, i64 noundef %25)
  br label %26

26:                                               ; preds = %19, %15, %13, %1, %21
  ret void
}